target datalayout = "e-m:e-p270:32:32-p271:32:32-p272:64:64-i64:64-i128:128-f80:128-n8:16:32:64-S128"
target triple = "x86_64-pc-linux-gnu"

%struct.prte_odls_pipe_err_msg_t = type { i8, i32, i32, i32, i32 }

@.str = private unnamed_addr constant [37 x i8] c"PRTE ERROR: %s in file %s at line %d\00", align 1
@.str.1 = private unnamed_addr constant [22 x i8] c"odls_default_module.c\00", align 1

; Function Attrs: nounwind uwtable
define internal i32 @write_help_msg(i32 noundef %0, ptr noundef %1, ptr noundef %2, ptr noundef %3, ptr noundef %4) #1 {
  %6 = alloca i32, align 4
  %7 = alloca i32, align 4
  %8 = alloca ptr, align 8
  %9 = alloca ptr, align 8
  %10 = alloca ptr, align 8
  %11 = alloca ptr, align 8
  %12 = alloca i32, align 4
  %13 = alloca ptr, align 8
  %14 = alloca i32, align 4
  store i32 %0, ptr %7, align 4, !tbaa !8
  store ptr %1, ptr %8, align 8, !tbaa !24
  store ptr %2, ptr %9, align 8, !tbaa !94
  store ptr %3, ptr %10, align 8, !tbaa !94
  store ptr %4, ptr %11, align 8, !tbaa !120
  call void @llvm.lifetime.start.p0(i64 4, ptr %12) #13
  call void @llvm.lifetime.start.p0(i64 8, ptr %13) #13
  %15 = load ptr, ptr %9, align 8, !tbaa !94
  %16 = icmp eq ptr null, %15
  br i1 %16, label %20, label %17

17:                                               ; preds = %5
  %18 = load ptr, ptr %10, align 8, !tbaa !94
  %19 = icmp eq ptr null, %18
  br i1 %19, label %20, label %21

20:                                               ; preds = %17, %5
  store i32 -5, ptr %6, align 4
  store i32 1, ptr %14, align 4
  br label %112

21:                                               ; preds = %17
  %22 = load ptr, ptr %9, align 8, !tbaa !94
  %23 = load ptr, ptr %10, align 8, !tbaa !94
  %24 = load ptr, ptr %11, align 8, !tbaa !120
  %25 = call ptr @pmix_show_help_vstring(ptr noundef %22, ptr noundef %23, i32 noundef 1, ptr noundef %24)
  store ptr %25, ptr %13, align 8, !tbaa !94
  %26 = load ptr, ptr %9, align 8, !tbaa !94
  %27 = call i64 @strlen(ptr noundef %26) #18
  %28 = trunc i64 %27 to i32
  %29 = load ptr, ptr %8, align 8, !tbaa !24
  %30 = getelementptr inbounds nuw %struct.prte_odls_pipe_err_msg_t, ptr %29, i32 0, i32 2
  store i32 %28, ptr %30, align 4, !tbaa !112
  %31 = load ptr, ptr %8, align 8, !tbaa !24
  %32 = getelementptr inbounds nuw %struct.prte_odls_pipe_err_msg_t, ptr %31, i32 0, i32 2
  %33 = load i32, ptr %32, align 4, !tbaa !112
  %34 = icmp sgt i32 %33, 511
  br i1 %34, label %35, label %40

35:                                               ; preds = %21
  br label %36

36:                                               ; preds = %35
  %37 = call ptr @prte_strerror(i32 noundef -5)
  call void (i32, ptr, ...) @pmix_output(i32 noundef 0, ptr noundef @.str, ptr noundef %37, ptr noundef @.str.1, i32 noundef 241)
  br label %38

38:                                               ; preds = %36
  br label %39

39:                                               ; preds = %38
  store i32 -5, ptr %6, align 4
  store i32 1, ptr %14, align 4
  br label %112

40:                                               ; preds = %21
  %41 = load ptr, ptr %10, align 8, !tbaa !94
  %42 = call i64 @strlen(ptr noundef %41) #18
  %43 = trunc i64 %42 to i32
  %44 = load ptr, ptr %8, align 8, !tbaa !24
  %45 = getelementptr inbounds nuw %struct.prte_odls_pipe_err_msg_t, ptr %44, i32 0, i32 3
  store i32 %43, ptr %45, align 4, !tbaa !114
  %46 = load ptr, ptr %8, align 8, !tbaa !24
  %47 = getelementptr inbounds nuw %struct.prte_odls_pipe_err_msg_t, ptr %46, i32 0, i32 3
  %48 = load i32, ptr %47, align 4, !tbaa !114
  %49 = icmp sgt i32 %48, 511
  br i1 %49, label %50, label %55

50:                                               ; preds = %40
  br label %51

51:                                               ; preds = %50
  %52 = call ptr @prte_strerror(i32 noundef -5)
  call void (i32, ptr, ...) @pmix_output(i32 noundef 0, ptr noundef @.str, ptr noundef %52, ptr noundef @.str.1, i32 noundef 246)
  br label %53

53:                                               ; preds = %51
  br label %54

54:                                               ; preds = %53
  store i32 -5, ptr %6, align 4
  store i32 1, ptr %14, align 4
  br label %112

55:                                               ; preds = %40
  %56 = load ptr, ptr %13, align 8, !tbaa !94
  %57 = call i64 @strlen(ptr noundef %56) #18
  %58 = trunc i64 %57 to i32
  %59 = load ptr, ptr %8, align 8, !tbaa !24
  %60 = getelementptr inbounds nuw %struct.prte_odls_pipe_err_msg_t, ptr %59, i32 0, i32 4
  store i32 %58, ptr %60, align 4, !tbaa !115
  %61 = load i32, ptr %7, align 4, !tbaa !8
  %62 = load ptr, ptr %8, align 8, !tbaa !24
  %63 = call i32 @pmix_fd_write(i32 noundef %61, i32 noundef 20, ptr noundef %62)
  store i32 %63, ptr %12, align 4, !tbaa !8
  %64 = icmp ne i32 0, %63
  br i1 %64, label %65, label %66

65:                                               ; preds = %55
  br label %109

66:                                               ; preds = %55
  %67 = load ptr, ptr %8, align 8, !tbaa !24
  %68 = getelementptr inbounds nuw %struct.prte_odls_pipe_err_msg_t, ptr %67, i32 0, i32 2
  %69 = load i32, ptr %68, align 4, !tbaa !112
  %70 = icmp sgt i32 %69, 0
  br i1 %70, label %71, label %80

71:                                               ; preds = %66
  %72 = load i32, ptr %7, align 4, !tbaa !8
  %73 = load ptr, ptr %8, align 8, !tbaa !24
  %74 = getelementptr inbounds nuw %struct.prte_odls_pipe_err_msg_t, ptr %73, i32 0, i32 2
  %75 = load i32, ptr %74, align 4, !tbaa !112
  %76 = load ptr, ptr %9, align 8, !tbaa !94
  %77 = call i32 @pmix_fd_write(i32 noundef %72, i32 noundef %75, ptr noundef %76)
  store i32 %77, ptr %12, align 4, !tbaa !8
  %78 = icmp ne i32 0, %77
  br i1 %78, label %79, label %80

79:                                               ; preds = %71
  br label %109

80:                                               ; preds = %71, %66
  %81 = load ptr, ptr %8, align 8, !tbaa !24
  %82 = getelementptr inbounds nuw %struct.prte_odls_pipe_err_msg_t, ptr %81, i32 0, i32 3
  %83 = load i32, ptr %82, align 4, !tbaa !114
  %84 = icmp sgt i32 %83, 0
  br i1 %84, label %85, label %94

85:                                               ; preds = %80
  %86 = load i32, ptr %7, align 4, !tbaa !8
  %87 = load ptr, ptr %8, align 8, !tbaa !24
  %88 = getelementptr inbounds nuw %struct.prte_odls_pipe_err_msg_t, ptr %87, i32 0, i32 3
  %89 = load i32, ptr %88, align 4, !tbaa !114
  %90 = load ptr, ptr %10, align 8, !tbaa !94
  %91 = call i32 @pmix_fd_write(i32 noundef %86, i32 noundef %89, ptr noundef %90)
  store i32 %91, ptr %12, align 4, !tbaa !8
  %92 = icmp ne i32 0, %91
  br i1 %92, label %93, label %94

93:                                               ; preds = %85
  br label %109

94:                                               ; preds = %85, %80
  %95 = load ptr, ptr %8, align 8, !tbaa !24
  %96 = getelementptr inbounds nuw %struct.prte_odls_pipe_err_msg_t, ptr %95, i32 0, i32 4
  %97 = load i32, ptr %96, align 4, !tbaa !115
  %98 = icmp sgt i32 %97, 0
  br i1 %98, label %99, label %108

99:                                               ; preds = %94
  %100 = load i32, ptr %7, align 4, !tbaa !8
  %101 = load ptr, ptr %8, align 8, !tbaa !24
  %102 = getelementptr inbounds nuw %struct.prte_odls_pipe_err_msg_t, ptr %101, i32 0, i32 4
  %103 = load i32, ptr %102, align 4, !tbaa !115
  %104 = load ptr, ptr %13, align 8, !tbaa !94
  %105 = call i32 @pmix_fd_write(i32 noundef %100, i32 noundef %103, ptr noundef %104)
  store i32 %105, ptr %12, align 4, !tbaa !8
  %106 = icmp ne i32 0, %105
  br i1 %106, label %107, label %108

107:                                              ; preds = %99
  br label %109

108:                                              ; preds = %99, %94
  br label %109

109:                                              ; preds = %108, %107, %93, %79, %65
  %110 = load ptr, ptr %13, align 8, !tbaa !94
  call void @free(ptr noundef %110) #13
  %111 = load i32, ptr %12, align 4, !tbaa !8
  store i32 %111, ptr %6, align 4
  store i32 1, ptr %14, align 4
  br label %112

112:                                              ; preds = %109, %54, %39, %20
  call void @llvm.lifetime.end.p0(i64 8, ptr %13) #13
  call void @llvm.lifetime.end.p0(i64 4, ptr %12) #13
  %113 = load i32, ptr %6, align 4
  ret i32 %113
}