; Function Attrs: nounwind uwtable
define internal fastcc void @write_help_msg(i32 noundef %0, ptr noundef nonnull %1, ptr noundef %2, ptr noundef %3, ptr noundef nonnull %4) unnamed_addr #1 {
  %6 = icmp eq ptr %2, null
  %7 = icmp eq ptr %3, null
  %or.cond = or i1 %6, %7
  br i1 %or.cond, label %44, label %8

8:                                                ; preds = %5
  %9 = tail call ptr @pmix_show_help_vstring(ptr noundef nonnull %2, ptr noundef nonnull %3, i32 noundef 1, ptr noundef nonnull %4) #16
  %10 = tail call i64 @strlen(ptr noundef nonnull dereferenceable(1) %2) #22
  %11 = trunc i64 %10 to i32
  %12 = getelementptr inbounds nuw i8, ptr %1, i64 8
  store i32 %11, ptr %12, align 4, !tbaa !67
  %13 = icmp sgt i32 %11, 511
  br i1 %13, label %14, label %16

14:                                               ; preds = %8
  %15 = tail call ptr @prte_strerror(i32 noundef -5) #16
  tail call void (i32, ptr, ...) @pmix_output(i32 noundef 0, ptr noundef nonnull @.str, ptr noundef %15, ptr noundef nonnull @.str.1, i32 noundef 241) #16
  br label %44

16:                                               ; preds = %8
  %17 = tail call i64 @strlen(ptr noundef nonnull dereferenceable(1) %3) #22
  %18 = trunc i64 %17 to i32
  %19 = getelementptr inbounds nuw i8, ptr %1, i64 12
  store i32 %18, ptr %19, align 4, !tbaa !78
  %20 = icmp sgt i32 %18, 511
  br i1 %20, label %21, label %23

21:                                               ; preds = %16
  %22 = tail call ptr @prte_strerror(i32 noundef -5) #16
  tail call void (i32, ptr, ...) @pmix_output(i32 noundef 0, ptr noundef nonnull @.str, ptr noundef %22, ptr noundef nonnull @.str.1, i32 noundef 246) #16
  br label %44

23:                                               ; preds = %16
  %24 = tail call i64 @strlen(ptr noundef nonnull dereferenceable(1) %9) #22
  %25 = trunc i64 %24 to i32
  %26 = getelementptr inbounds nuw i8, ptr %1, i64 16
  store i32 %25, ptr %26, align 4, !tbaa !79
  %27 = tail call i32 @pmix_fd_write(i32 noundef %0, i32 noundef 20, ptr noundef nonnull %1) #16
  %.not = icmp eq i32 %27, 0
  br i1 %.not, label %28, label %43

28:                                               ; preds = %23
  %29 = load i32, ptr %12, align 4, !tbaa !67
  %30 = icmp sgt i32 %29, 0
  br i1 %30, label %31, label %33

31:                                               ; preds = %28
  %32 = tail call i32 @pmix_fd_write(i32 noundef %0, i32 noundef %29, ptr noundef nonnull %2) #16
  %.not42 = icmp eq i32 %32, 0
  br i1 %.not42, label %33, label %43

33:                                               ; preds = %31, %28
  %34 = load i32, ptr %19, align 4, !tbaa !78
  %35 = icmp sgt i32 %34, 0
  br i1 %35, label %36, label %38

36:                                               ; preds = %33
  %37 = tail call i32 @pmix_fd_write(i32 noundef %0, i32 noundef %34, ptr noundef nonnull %3) #16
  %.not43 = icmp eq i32 %37, 0
  br i1 %.not43, label %38, label %43

38:                                               ; preds = %36, %33
  %39 = load i32, ptr %26, align 4, !tbaa !79
  %40 = icmp sgt i32 %39, 0
  br i1 %40, label %41, label %43

41:                                               ; preds = %38
  %42 = tail call i32 @pmix_fd_write(i32 noundef %0, i32 noundef %39, ptr noundef nonnull %9) #16
  br label %43

43:                                               ; preds = %41, %38, %36, %31, %23
  tail call void @free(ptr noundef nonnull %9) #16
  br label %44

44:                                               ; preds = %5, %43, %21, %14
  ret void
}